; Function Attrs: mustprogress uwtable
define noundef i32 @_ZN6icu_7716BytesTrieBuilder18writeValueAndFinalEia(ptr noundef nonnull align 8 dereferenceable(56) %0, i32 noundef %1, i8 noundef signext %2) unnamed_addr #1 align 2 {
  %4 = alloca [5 x i8], align 1
  %or.cond = icmp ult i32 %1, 65
  br i1 %or.cond, label %5, label %14

5:                                                ; preds = %3
  %6 = shl nuw nsw i32 %1, 1
  %7 = add nuw nsw i32 %6, 32
  %8 = sext i8 %2 to i32
  %9 = or i32 %7, %8
  %10 = load ptr, ptr %0, align 8, !tbaa !21
  %11 = getelementptr inbounds nuw i8, ptr %10, i64 120
  %12 = load ptr, ptr %11, align 8
  %13 = tail call noundef i32 %12(ptr noundef nonnull align 8 dereferenceable(56) %0, i32 noundef %9)
  br label %90

14:                                               ; preds = %3
  call void @llvm.lifetime.start.p0(i64 5, ptr nonnull %4) #19
  %or.cond3 = icmp ugt i32 %1, 16777215
  br i1 %or.cond3, label %15, label %27

15:                                               ; preds = %14
  %16 = lshr i32 %1, 24
  %17 = trunc nuw i32 %16 to i8
  %18 = getelementptr inbounds nuw i8, ptr %4, i64 1
  store i8 %17, ptr %18, align 1, !tbaa !20
  %19 = lshr i32 %1, 16
  %20 = trunc i32 %19 to i8
  %21 = getelementptr inbounds nuw i8, ptr %4, i64 2
  store i8 %20, ptr %21, align 1, !tbaa !20
  %22 = lshr i32 %1, 8
  %23 = trunc i32 %22 to i8
  %24 = getelementptr inbounds nuw i8, ptr %4, i64 3
  store i8 %23, ptr %24, align 1, !tbaa !20
  %25 = trunc i32 %1 to i8
  %26 = getelementptr inbounds nuw i8, ptr %4, i64 4
  store i8 %25, ptr %26, align 1, !tbaa !20
  br label %54

27:                                               ; preds = %14
  %28 = icmp samesign ult i32 %1, 6912
  br i1 %28, label %29, label %33

29:                                               ; preds = %27
  %30 = lshr i32 %1, 8
  %31 = trunc nuw i32 %30 to i8
  %32 = add nuw nsw i8 %31, 81
  br label %47

33:                                               ; preds = %27
  %34 = icmp samesign ult i32 %1, 1179648
  %35 = lshr i32 %1, 16
  %36 = trunc nuw i32 %35 to i8
  br i1 %34, label %37, label %39

37:                                               ; preds = %33
  %38 = add nuw nsw i8 %36, 108
  br label %41

39:                                               ; preds = %33
  %40 = getelementptr inbounds nuw i8, ptr %4, i64 1
  store i8 %36, ptr %40, align 1, !tbaa !20
  br label %41

41:                                               ; preds = %39, %37
  %.sink = phi i8 [ %38, %37 ], [ 126, %39 ]
  %.2 = phi i32 [ 1, %37 ], [ 2, %39 ]
  %42 = lshr i32 %1, 8
  %43 = trunc i32 %42 to i8
  %44 = add nuw nsw i32 %.2, 1
  %45 = zext nneg i32 %.2 to i64
  %46 = getelementptr inbounds nuw [5 x i8], ptr %4, i64 0, i64 %45
  store i8 %43, ptr %46, align 1, !tbaa !20
  br label %47

47:                                               ; preds = %41, %29
  %48 = phi i8 [ %32, %29 ], [ %.sink, %41 ]
  %.1 = phi i32 [ 1, %29 ], [ %44, %41 ]
  %49 = trunc i32 %1 to i8
  %50 = add nuw nsw i32 %.1, 1
  %51 = zext nneg i32 %.1 to i64
  %52 = getelementptr inbounds nuw [5 x i8], ptr %4, i64 0, i64 %51
  store i8 %49, ptr %52, align 1, !tbaa !20
  %53 = shl nuw i8 %48, 1
  br label %54

54:                                               ; preds = %47, %15
  %55 = phi i8 [ -2, %15 ], [ %53, %47 ]
  %.0 = phi i32 [ 5, %15 ], [ %50, %47 ]
  %56 = or i8 %55, %2
  store i8 %56, ptr %4, align 1, !tbaa !20
  %57 = getelementptr inbounds nuw i8, ptr %0, i64 52
  %58 = load i32, ptr %57, align 4, !tbaa !32
  %59 = add nsw i32 %58, %.0
  %60 = getelementptr inbounds nuw i8, ptr %0, i64 40
  %61 = load ptr, ptr %60, align 8, !tbaa !31
  %62 = icmp eq ptr %61, null
  br i1 %62, label %_ZN6icu_7716BytesTrieBuilder5writeEPKci.exit, label %63

63:                                               ; preds = %54
  %64 = getelementptr inbounds nuw i8, ptr %0, i64 48
  %65 = load i32, ptr %64, align 8, !tbaa !35
  %66 = icmp sgt i32 %59, %65
  br i1 %66, label %.preheader.i.i, label %_ZN6icu_7716BytesTrieBuilder14ensureCapacityEi.exit.thread7.i

.preheader.i.i:                                   ; preds = %63, %.preheader.i.i
  %.013.i.i = phi i32 [ %67, %.preheader.i.i ], [ %65, %63 ]
  %67 = shl nsw i32 %.013.i.i, 1
  %.not.i.i = icmp sgt i32 %67, %59
  br i1 %.not.i.i, label %68, label %.preheader.i.i, !llvm.loop !60

68:                                               ; preds = %.preheader.i.i
  %69 = sext i32 %67 to i64
  %70 = tail call noalias ptr @uprv_malloc_77(i64 noundef %69) #20
  %71 = icmp eq ptr %70, null
  br i1 %71, label %_ZN6icu_7716BytesTrieBuilder14ensureCapacityEi.exit.thread10.i, label %_ZN6icu_7716BytesTrieBuilder14ensureCapacityEi.exit.i

_ZN6icu_7716BytesTrieBuilder14ensureCapacityEi.exit.thread10.i: ; preds = %68
  %72 = load ptr, ptr %60, align 8, !tbaa !31
  tail call void @uprv_free_77(ptr noundef %72)
  store ptr null, ptr %60, align 8, !tbaa !31
  store i32 0, ptr %64, align 8, !tbaa !35
  br label %_ZN6icu_7716BytesTrieBuilder5writeEPKci.exit

_ZN6icu_7716BytesTrieBuilder14ensureCapacityEi.exit.i: ; preds = %68
  %73 = load i32, ptr %57, align 4, !tbaa !32
  %74 = sub nsw i32 %67, %73
  %75 = sext i32 %74 to i64
  %76 = getelementptr inbounds i8, ptr %70, i64 %75
  %77 = load ptr, ptr %60, align 8, !tbaa !31
  %78 = load i32, ptr %64, align 8, !tbaa !35
  %79 = sub nsw i32 %78, %73
  %80 = sext i32 %79 to i64
  %81 = getelementptr inbounds i8, ptr %77, i64 %80
  %82 = sext i32 %73 to i64
  tail call void @llvm.memcpy.p0.p0.i64(ptr nonnull align 1 %76, ptr align 1 %81, i64 %82, i1 false)
  tail call void @uprv_free_77(ptr noundef %77)
  store ptr %70, ptr %60, align 8, !tbaa !31
  store i32 %67, ptr %64, align 8, !tbaa !35
  br label %_ZN6icu_7716BytesTrieBuilder14ensureCapacityEi.exit.thread7.i

_ZN6icu_7716BytesTrieBuilder14ensureCapacityEi.exit.thread7.i: ; preds = %_ZN6icu_7716BytesTrieBuilder14ensureCapacityEi.exit.i, %63
  %83 = phi i32 [ %65, %63 ], [ %67, %_ZN6icu_7716BytesTrieBuilder14ensureCapacityEi.exit.i ]
  %84 = phi ptr [ %61, %63 ], [ %70, %_ZN6icu_7716BytesTrieBuilder14ensureCapacityEi.exit.i ]
  store i32 %59, ptr %57, align 4, !tbaa !32
  %85 = sub nsw i32 %83, %59
  %86 = sext i32 %85 to i64
  %87 = getelementptr inbounds i8, ptr %84, i64 %86
  %88 = zext nneg i32 %.0 to i64
  call void @llvm.memcpy.p0.p0.i64(ptr noundef nonnull align 1 dereferenceable(1) %87, ptr noundef nonnull readonly align 1 dereferenceable(1) %4, i64 %88, i1 false)
  br label %_ZN6icu_7716BytesTrieBuilder5writeEPKci.exit

_ZN6icu_7716BytesTrieBuilder5writeEPKci.exit:     ; preds = %54, %_ZN6icu_7716BytesTrieBuilder14ensureCapacityEi.exit.thread10.i, %_ZN6icu_7716BytesTrieBuilder14ensureCapacityEi.exit.thread7.i
  %89 = load i32, ptr %57, align 4, !tbaa !32
  call void @llvm.lifetime.end.p0(i64 5, ptr nonnull %4) #19
  br label %90

90:                                               ; preds = %_ZN6icu_7716BytesTrieBuilder5writeEPKci.exit, %5
  %.025 = phi i32 [ %13, %5 ], [ %89, %_ZN6icu_7716BytesTrieBuilder5writeEPKci.exit ]
  ret i32 %.025
}